target datalayout = "e-m:e-p270:32:32-p271:32:32-p272:64:64-i64:64-i128:128-f80:128-n8:16:32:64-S128"
target triple = "x86_64-pc-linux-gnu"

%struct.oxm_header = type { i32, i8, i32, i32 }

@hf_openflow_v6_oxm_class = internal global i32 0, align 4
@hf_openflow_v6_oxm_field = internal global i32 0, align 4
@hf_openflow_v6_oxm_field_basic = internal global i32 0, align 4
@hf_openflow_v6_oxm_hm = internal global i32 0, align 4
@hf_openflow_v6_oxm_length = internal global i32 0, align 4
@hf_openflow_v6_oxm_register = internal global i32 0, align 4

; Function Attrs: null_pointer_is_valid sspstrong uwtable
define internal i32 @dissect_openflow_oxm_header_v6(ptr noundef %0, ptr noundef %1, ptr noundef %2, i32 noundef %3, i16 noundef zeroext %4, ptr noundef %5) #0 {
  %7 = alloca ptr, align 8
  %8 = alloca ptr, align 8
  %9 = alloca ptr, align 8
  %10 = alloca i32, align 4
  %11 = alloca i16, align 2
  %12 = alloca ptr, align 8
  %13 = alloca i32, align 4
  %14 = alloca i8, align 1
  %15 = alloca i32, align 4
  %16 = alloca i32, align 4
  store ptr %0, ptr %7, align 8
  store ptr %1, ptr %8, align 8
  store ptr %2, ptr %9, align 8
  store i32 %3, ptr %10, align 4
  store i16 %4, ptr %11, align 2
  store ptr %5, ptr %12, align 8
  call void @llvm.lifetime.start.p0(i64 4, ptr %13) #5
  call void @llvm.lifetime.start.p0(i64 1, ptr %14) #5
  call void @llvm.lifetime.start.p0(i64 4, ptr %15) #5
  call void @llvm.lifetime.start.p0(i64 4, ptr %16) #5
  %17 = load ptr, ptr %9, align 8
  %18 = load i32, ptr @hf_openflow_v6_oxm_class, align 4
  %19 = load ptr, ptr %7, align 8
  %20 = load i32, ptr %10, align 4
  %21 = call ptr @proto_tree_add_item_ret_uint(ptr noundef %17, i32 noundef %18, ptr noundef %19, i32 noundef %20, i32 noundef 2, i32 noundef 0, ptr noundef %13)
  %22 = load i32, ptr %10, align 4
  %23 = add i32 %22, 2
  store i32 %23, ptr %10, align 4
  %24 = load i32, ptr %13, align 4
  switch i32 %24, label %38 [
    i32 32768, label %25
    i32 32769, label %32
  ]

25:                                               ; preds = %6
  %26 = load ptr, ptr %9, align 8
  %27 = load i32, ptr @hf_openflow_v6_oxm_field_basic, align 4
  %28 = load ptr, ptr %7, align 8
  %29 = load i32, ptr %10, align 4
  %30 = mul i32 %29, 8
  %31 = call ptr @proto_tree_add_item_ret_uint(ptr noundef %26, i32 noundef %27, ptr noundef %28, i32 noundef %30, i32 noundef 7, i32 noundef 0, ptr noundef %15)
  br label %44

32:                                               ; preds = %6
  %33 = load ptr, ptr %9, align 8
  %34 = load i32, ptr @hf_openflow_v6_oxm_register, align 4
  %35 = load ptr, ptr %7, align 8
  %36 = load i32, ptr %10, align 4
  %37 = call ptr @proto_tree_add_item_ret_uint(ptr noundef %33, i32 noundef %34, ptr noundef %35, i32 noundef %36, i32 noundef 1, i32 noundef 0, ptr noundef %15)
  br label %44

38:                                               ; preds = %6
  %39 = load ptr, ptr %9, align 8
  %40 = load i32, ptr @hf_openflow_v6_oxm_field, align 4
  %41 = load ptr, ptr %7, align 8
  %42 = load i32, ptr %10, align 4
  %43 = call ptr @proto_tree_add_item_ret_uint(ptr noundef %39, i32 noundef %40, ptr noundef %41, i32 noundef %42, i32 noundef 1, i32 noundef 0, ptr noundef %15)
  br label %44

44:                                               ; preds = %38, %32, %25
  %45 = load ptr, ptr %9, align 8
  %46 = load i32, ptr @hf_openflow_v6_oxm_hm, align 4
  %47 = load ptr, ptr %7, align 8
  %48 = load i32, ptr %10, align 4
  %49 = call ptr @proto_tree_add_item_ret_boolean(ptr noundef %45, i32 noundef %46, ptr noundef %47, i32 noundef %48, i32 noundef 1, i32 noundef 0, ptr noundef %14)
  %50 = load i32, ptr %10, align 4
  %51 = add i32 %50, 1
  store i32 %51, ptr %10, align 4
  %52 = load ptr, ptr %9, align 8
  %53 = load i32, ptr @hf_openflow_v6_oxm_length, align 4
  %54 = load ptr, ptr %7, align 8
  %55 = load i32, ptr %10, align 4
  %56 = call ptr @proto_tree_add_item_ret_uint(ptr noundef %52, i32 noundef %53, ptr noundef %54, i32 noundef %55, i32 noundef 1, i32 noundef 0, ptr noundef %16)
  %57 = load i32, ptr %10, align 4
  %58 = add i32 %57, 1
  store i32 %58, ptr %10, align 4
  %59 = load ptr, ptr %12, align 8
  %60 = icmp ne ptr %59, null
  br i1 %60, label %61, label %76

61:                                               ; preds = %44
  %62 = load i32, ptr %13, align 4
  %63 = load ptr, ptr %12, align 8
  %64 = getelementptr inbounds nuw %struct.oxm_header, ptr %63, i32 0, i32 0
  store i32 %62, ptr %64, align 4
  %65 = load i8, ptr %14, align 1, !range !8, !noundef !9
  %66 = trunc i8 %65 to i1
  %67 = load ptr, ptr %12, align 8
  %68 = getelementptr inbounds nuw %struct.oxm_header, ptr %67, i32 0, i32 1
  %69 = zext i1 %66 to i8
  store i8 %69, ptr %68, align 4
  %70 = load i32, ptr %15, align 4
  %71 = load ptr, ptr %12, align 8
  %72 = getelementptr inbounds nuw %struct.oxm_header, ptr %71, i32 0, i32 2
  store i32 %70, ptr %72, align 4
  %73 = load i32, ptr %16, align 4
  %74 = load ptr, ptr %12, align 8
  %75 = getelementptr inbounds nuw %struct.oxm_header, ptr %74, i32 0, i32 3
  store i32 %73, ptr %75, align 4
  br label %76

76:                                               ; preds = %61, %44
  %77 = load i32, ptr %10, align 4
  call void @llvm.lifetime.end.p0(i64 4, ptr %16) #5
  call void @llvm.lifetime.end.p0(i64 4, ptr %15) #5
  call void @llvm.lifetime.end.p0(i64 1, ptr %14) #5
  call void @llvm.lifetime.end.p0(i64 4, ptr %13) #5
  ret i32 %77
}