; Function Attrs: null_pointer_is_valid sspstrong uwtable
define internal fastcc noundef i32 @dissect_openflow_oxm_header_v6(ptr noundef %0, ptr noundef %1, i32 noundef %2, ptr noundef writeonly captures(address_is_null) %3) unnamed_addr #0 {
  %5 = alloca i32, align 4
  %6 = alloca i8, align 1
  %7 = alloca i32, align 4
  %8 = alloca i32, align 4
  call void @llvm.lifetime.start.p0(i64 4, ptr nonnull %5) #4
  call void @llvm.lifetime.start.p0(i64 1, ptr nonnull %6) #4
  call void @llvm.lifetime.start.p0(i64 4, ptr nonnull %7) #4
  call void @llvm.lifetime.start.p0(i64 4, ptr nonnull %8) #4
  %9 = load i32, ptr @hf_openflow_v6_oxm_class, align 4
  %10 = call ptr @proto_tree_add_item_ret_uint(ptr noundef %1, i32 noundef %9, ptr noundef %0, i32 noundef %2, i32 noundef 2, i32 noundef 0, ptr noundef nonnull %5)
  %11 = add i32 %2, 2
  %12 = load i32, ptr %5, align 4
  switch i32 %12, label %20 [
    i32 32768, label %13
    i32 32769, label %17
  ]

13:                                               ; preds = %4
  %14 = load i32, ptr @hf_openflow_v6_oxm_field_basic, align 4
  %15 = shl i32 %11, 3
  %16 = call ptr @proto_tree_add_item_ret_uint(ptr noundef %1, i32 noundef %14, ptr noundef %0, i32 noundef %15, i32 noundef 7, i32 noundef 0, ptr noundef nonnull %7)
  br label %23

17:                                               ; preds = %4
  %18 = load i32, ptr @hf_openflow_v6_oxm_register, align 4
  %19 = call ptr @proto_tree_add_item_ret_uint(ptr noundef %1, i32 noundef %18, ptr noundef %0, i32 noundef %11, i32 noundef 1, i32 noundef 0, ptr noundef nonnull %7)
  br label %23

20:                                               ; preds = %4
  %21 = load i32, ptr @hf_openflow_v6_oxm_field, align 4
  %22 = call ptr @proto_tree_add_item_ret_uint(ptr noundef %1, i32 noundef %21, ptr noundef %0, i32 noundef %11, i32 noundef 1, i32 noundef 0, ptr noundef nonnull %7)
  br label %23

23:                                               ; preds = %20, %17, %13
  %24 = load i32, ptr @hf_openflow_v6_oxm_hm, align 4
  %25 = call ptr @proto_tree_add_item_ret_boolean(ptr noundef %1, i32 noundef %24, ptr noundef %0, i32 noundef %11, i32 noundef 1, i32 noundef 0, ptr noundef nonnull %6)
  %26 = add i32 %2, 3
  %27 = load i32, ptr @hf_openflow_v6_oxm_length, align 4
  %28 = call ptr @proto_tree_add_item_ret_uint(ptr noundef %1, i32 noundef %27, ptr noundef %0, i32 noundef %26, i32 noundef 1, i32 noundef 0, ptr noundef nonnull %8)
  %.not = icmp eq ptr %3, null
  br i1 %.not, label %37, label %29

29:                                               ; preds = %23
  %30 = load i32, ptr %5, align 4
  store i32 %30, ptr %3, align 4
  %31 = load i8, ptr %6, align 1, !range !41, !noundef !42
  %32 = getelementptr inbounds nuw i8, ptr %3, i64 4
  store i8 %31, ptr %32, align 4
  %33 = load i32, ptr %7, align 4
  %34 = getelementptr inbounds nuw i8, ptr %3, i64 8
  store i32 %33, ptr %34, align 4
  %35 = load i32, ptr %8, align 4
  %36 = getelementptr inbounds nuw i8, ptr %3, i64 12
  store i32 %35, ptr %36, align 4
  br label %37

37:                                               ; preds = %29, %23
  %38 = add i32 %2, 4
  call void @llvm.lifetime.end.p0(i64 4, ptr nonnull %8) #4
  call void @llvm.lifetime.end.p0(i64 4, ptr nonnull %7) #4
  call void @llvm.lifetime.end.p0(i64 1, ptr nonnull %6) #4
  call void @llvm.lifetime.end.p0(i64 4, ptr nonnull %5) #4
  ret i32 %38
}